; Function Attrs: nounwind uwtable
define zeroext range(i8 0, 2) i8 @l_Lake_RBArray_contains___rarg(ptr noundef %0, ptr noundef %1, ptr noundef %2) local_unnamed_addr #0 {
  %4 = getelementptr inbounds nuw i8, ptr %1, i64 8
  %5 = load ptr, ptr %4, align 8, !tbaa !4
  %6 = ptrtoint ptr %5 to i64
  %7 = and i64 %6, 1
  %.not = icmp eq i64 %7, 0
  br i1 %.not, label %8, label %lean_inc.exit

8:                                                ; preds = %3
  %.val.i = load i32, ptr %5, align 4, !tbaa !8
  %9 = icmp sgt i32 %.val.i, 0
  br i1 %9, label %10, label %12, !prof !13

10:                                               ; preds = %8
  %11 = add nuw i32 %.val.i, 1
  store i32 %11, ptr %5, align 4, !tbaa !8
  br label %lean_inc.exit

12:                                               ; preds = %8
  %.not.i13 = icmp eq i32 %.val.i, 0
  br i1 %.not.i13, label %lean_inc.exit, label %13

13:                                               ; preds = %12
  tail call void @lean_inc_ref_cold(ptr noundef nonnull %5) #4
  br label %lean_inc.exit

lean_inc.exit:                                    ; preds = %13, %12, %10, %3
  %14 = ptrtoint ptr %1 to i64
  %15 = and i64 %14, 1
  %.not17 = icmp eq i64 %15, 0
  br i1 %.not17, label %16, label %lean_dec.exit10

16:                                               ; preds = %lean_inc.exit
  %17 = load i32, ptr %1, align 4, !tbaa !8
  %18 = icmp sgt i32 %17, 1
  br i1 %18, label %19, label %21, !prof !13

19:                                               ; preds = %16
  %20 = add nsw i32 %17, -1
  store i32 %20, ptr %1, align 4, !tbaa !8
  br label %lean_dec.exit10

21:                                               ; preds = %16
  %.not.i = icmp eq i32 %17, 0
  br i1 %.not.i, label %lean_dec.exit10, label %22

22:                                               ; preds = %21
  tail call void @lean_dec_ref_cold(ptr noundef nonnull %1) #4
  br label %lean_dec.exit10

lean_dec.exit10:                                  ; preds = %22, %21, %19, %lean_inc.exit
  %23 = tail call ptr @l_Lean_RBNode_find___rarg(ptr noundef %0, ptr noundef nonnull inttoptr (i64 1 to ptr), ptr noundef %5, ptr noundef %2) #4
  %24 = ptrtoint ptr %23 to i64
  %25 = and i64 %24, 1
  %.not.i14 = icmp eq i64 %25, 0
  br i1 %.not.i14, label %lean_obj_tag.exit.thread, label %lean_obj_tag.exit

lean_obj_tag.exit:                                ; preds = %lean_dec.exit10
  %26 = and i64 %24, 8589934590
  %27 = icmp ne i64 %26, 0
  %spec.select = zext i1 %27 to i8
  br label %lean_dec.exit

lean_obj_tag.exit.thread:                         ; preds = %lean_dec.exit10
  %28 = getelementptr i8, ptr %23, i64 4
  %.val.i15 = load i32, ptr %28, align 4
  %29 = icmp ult i32 %.val.i15, 16777216
  br i1 %29, label %lean_dec.exit, label %.thread

.thread:                                          ; preds = %lean_obj_tag.exit.thread
  %30 = load i32, ptr %23, align 4, !tbaa !8
  %31 = icmp sgt i32 %30, 1
  br i1 %31, label %32, label %34, !prof !13

32:                                               ; preds = %.thread
  %33 = add nsw i32 %30, -1
  store i32 %33, ptr %23, align 4, !tbaa !8
  br label %lean_dec.exit

34:                                               ; preds = %.thread
  %.not.i11 = icmp eq i32 %30, 0
  br i1 %.not.i11, label %lean_dec.exit, label %35

35:                                               ; preds = %34
  tail call void @lean_dec_ref_cold(ptr noundef nonnull %23) #4
  br label %lean_dec.exit

lean_dec.exit:                                    ; preds = %lean_obj_tag.exit, %32, %34, %35, %lean_obj_tag.exit.thread
  %.0 = phi i8 [ 0, %lean_obj_tag.exit.thread ], [ 1, %35 ], [ 1, %34 ], [ 1, %32 ], [ %spec.select, %lean_obj_tag.exit ]
  ret i8 %.0
}